target datalayout = "e-m:e-p270:32:32-p271:32:32-p272:64:64-i64:64-i128:128-f80:128-n8:16:32:64-S128"
target triple = "x86_64-pc-linux-gnu"

; Function Attrs: inlinehint nounwind uwtable
define internal zeroext i1 @_mi_is_power_of_two(i64 noundef %0) #2 {
  %2 = alloca i64, align 8
  store i64 %0, ptr %2, align 8, !tbaa !7
  %3 = load i64, ptr %2, align 8, !tbaa !7
  %4 = load i64, ptr %2, align 8, !tbaa !7
  %5 = sub i64 %4, 1
  %6 = and i64 %3, %5
  %7 = icmp eq i64 %6, 0
  ret i1 %7
}

; Function Attrs: nounwind uwtable
define hidden i32 @mi_posix_memalign(ptr noundef %0, i64 noundef %1, i64 noundef %2) #0 {
  %4 = alloca i32, align 4
  %5 = alloca ptr, align 8
  %6 = alloca i64, align 8
  %7 = alloca i64, align 8
  %8 = alloca ptr, align 8
  %9 = alloca i32, align 4
  store ptr %0, ptr %5, align 8, !tbaa !3
  store i64 %1, ptr %6, align 8, !tbaa !7
  store i64 %2, ptr %7, align 8, !tbaa !7
  %10 = load ptr, ptr %5, align 8, !tbaa !3
  %11 = icmp eq ptr %10, null
  br i1 %11, label %12, label %13

12:                                               ; preds = %3
  store i32 22, ptr %4, align 4
  br label %39

13:                                               ; preds = %3
  %14 = load i64, ptr %6, align 8, !tbaa !7
  %15 = urem i64 %14, 8
  %16 = icmp ne i64 %15, 0
  br i1 %16, label %17, label %18

17:                                               ; preds = %13
  store i32 22, ptr %4, align 4
  br label %39

18:                                               ; preds = %13
  %19 = load i64, ptr %6, align 8, !tbaa !7
  %20 = icmp eq i64 %19, 0
  br i1 %20, label %24, label %21

21:                                               ; preds = %18
  %22 = load i64, ptr %6, align 8, !tbaa !7
  %23 = call zeroext i1 @_mi_is_power_of_two(i64 noundef %22) #8
  br i1 %23, label %25, label %24

24:                                               ; preds = %21, %18
  store i32 22, ptr %4, align 4
  br label %39

25:                                               ; preds = %21
  call void @llvm.lifetime.start.p0(i64 8, ptr %8) #9
  %26 = load i64, ptr %7, align 8, !tbaa !7
  %27 = load i64, ptr %6, align 8, !tbaa !7
  %28 = call noalias ptr @mi_malloc_aligned(i64 noundef %26, i64 noundef %27) #8
  store ptr %28, ptr %8, align 8, !tbaa !3
  %29 = load ptr, ptr %8, align 8, !tbaa !3
  %30 = icmp eq ptr %29, null
  br i1 %30, label %31, label %35

31:                                               ; preds = %25
  %32 = load i64, ptr %7, align 8, !tbaa !7
  %33 = icmp ne i64 %32, 0
  br i1 %33, label %34, label %35

34:                                               ; preds = %31
  store i32 12, ptr %4, align 4
  store i32 1, ptr %9, align 4
  br label %38

35:                                               ; preds = %31, %25
  %36 = load ptr, ptr %8, align 8, !tbaa !3
  %37 = load ptr, ptr %5, align 8, !tbaa !3
  store ptr %36, ptr %37, align 8, !tbaa !3
  store i32 0, ptr %4, align 4
  store i32 1, ptr %9, align 4
  br label %38

38:                                               ; preds = %35, %34
  call void @llvm.lifetime.end.p0(i64 8, ptr %8) #9
  br label %39

39:                                               ; preds = %38, %24, %17, %12
  %40 = load i32, ptr %4, align 4
  ret i32 %40
}